; Function Attrs: mustprogress nofree norecurse nosync nounwind willreturn memory(read, inaccessiblemem: none) uwtable
define range(i32 -1, 2) i32 @Aig_ObjCompareIdIncrease(ptr noundef readonly captures(none) %0, ptr noundef readonly captures(none) %1) local_unnamed_addr #6 {
  %3 = load ptr, ptr %0, align 8, !tbaa !43
  %4 = getelementptr i8, ptr %3, i64 36
  %.val = load i32, ptr %4, align 4, !tbaa !44
  %5 = load ptr, ptr %1, align 8, !tbaa !43
  %6 = getelementptr i8, ptr %5, i64 36
  %.val5 = load i32, ptr %6, align 4, !tbaa !44
  %.0 = tail call i32 @llvm.scmp.i32.i32(i32 %.val, i32 %.val5)
  ret i32 %.0
}